target datalayout = "e-m:e-p270:32:32-p271:32:32-p272:64:64-i64:64-i128:128-f80:128-n8:16:32:64-S128"
target triple = "x86_64-pc-linux-gnu"

%struct.Curl_multi = type { i32, i32, i32, %struct.Curl_llist, %struct.Curl_llist, %struct.Curl_llist, %struct.Curl_llist, i64, ptr, ptr, ptr, ptr, %struct.Curl_hash, ptr, %struct.PslCache, ptr, ptr, i64, ptr, i64, ptr, i64, %struct.Curl_hash, %struct.Curl_hash, %struct.cpool, i64, i64, ptr, ptr, i64, %struct.curltime, [2 x i32], i32, i32, i8, i8 }
%struct.Curl_llist = type { ptr, ptr, ptr, i64 }
%struct.PslCache = type { ptr, i64, i8 }
%struct.Curl_hash = type { ptr, ptr, ptr, ptr, i64, i64 }
%struct.cpool = type { %struct.Curl_hash, i64, i64, i64, %struct.curltime, %struct.Curl_llist, ptr, ptr, ptr, ptr, i8 }
%struct.curltime = type { i64, i32 }

; Function Attrs: nounwind uwtable
define i32 @curl_multi_wakeup(ptr noundef %0) #0 {
  %2 = alloca i32, align 4
  %3 = alloca ptr, align 8
  %4 = alloca ptr, align 8
  %5 = alloca ptr, align 8
  %6 = alloca i64, align 8
  %7 = alloca i32, align 4
  %8 = alloca i32, align 4
  %9 = alloca i32, align 4
  store ptr %0, ptr %3, align 8, !tbaa !7
  call void @llvm.lifetime.start.p0(i64 8, ptr %4) #9
  %10 = load ptr, ptr %3, align 8, !tbaa !7
  store ptr %10, ptr %4, align 8, !tbaa !9
  call void @llvm.lifetime.start.p0(i64 8, ptr %5) #9
  call void @llvm.lifetime.start.p0(i64 8, ptr %6) #9
  store i64 1, ptr %6, align 8, !tbaa !3
  %11 = load ptr, ptr %4, align 8, !tbaa !9
  %12 = icmp ne ptr %11, null
  br i1 %12, label %13, label %18

13:                                               ; preds = %1
  %14 = load ptr, ptr %4, align 8, !tbaa !9
  %15 = getelementptr inbounds nuw %struct.Curl_multi, ptr %14, i32 0, i32 0
  %16 = load i32, ptr %15, align 8, !tbaa !11
  %17 = icmp eq i32 %16, 764702
  br i1 %17, label %19, label %18

18:                                               ; preds = %13, %1
  store i32 1, ptr %2, align 4
  store i32 1, ptr %7, align 4
  br label %59

19:                                               ; preds = %13
  %20 = load ptr, ptr %4, align 8, !tbaa !9
  %21 = getelementptr inbounds nuw %struct.Curl_multi, ptr %20, i32 0, i32 31
  %22 = getelementptr inbounds [2 x i32], ptr %21, i64 0, i64 1
  %23 = load i32, ptr %22, align 4, !tbaa !30
  %24 = icmp ne i32 %23, -1
  br i1 %24, label %25, label %58

25:                                               ; preds = %19
  store ptr %6, ptr %5, align 8, !tbaa !7
  br label %26

26:                                               ; preds = %54, %25
  br label %27

27:                                               ; preds = %26
  %28 = load ptr, ptr %4, align 8, !tbaa !9
  %29 = getelementptr inbounds nuw %struct.Curl_multi, ptr %28, i32 0, i32 31
  %30 = getelementptr inbounds [2 x i32], ptr %29, i64 0, i64 1
  %31 = load i32, ptr %30, align 4, !tbaa !30
  %32 = load ptr, ptr %5, align 8, !tbaa !7
  %33 = call i64 @write(i32 noundef %31, ptr noundef %32, i64 noundef 8)
  %34 = icmp slt i64 %33, 0
  br i1 %34, label %35, label %57

35:                                               ; preds = %27
  call void @llvm.lifetime.start.p0(i64 4, ptr %8) #9
  %36 = call ptr @__errno_location() #10
  %37 = load i32, ptr %36, align 4, !tbaa !30
  store i32 %37, ptr %8, align 4, !tbaa !30
  call void @llvm.lifetime.start.p0(i64 4, ptr %9) #9
  %38 = load i32, ptr %8, align 4, !tbaa !30
  %39 = icmp eq i32 4, %38
  br i1 %39, label %40, label %41

40:                                               ; preds = %35
  store i32 2, ptr %7, align 4
  br label %54

41:                                               ; preds = %35
  %42 = load i32, ptr %8, align 4, !tbaa !30
  %43 = icmp eq i32 11, %42
  br i1 %43, label %47, label %44

44:                                               ; preds = %41
  %45 = load i32, ptr %8, align 4, !tbaa !30
  %46 = icmp eq i32 11, %45
  br label %47

47:                                               ; preds = %44, %41
  %48 = phi i1 [ true, %41 ], [ %46, %44 ]
  %49 = zext i1 %48 to i32
  store i32 %49, ptr %9, align 4, !tbaa !30
  %50 = load i32, ptr %9, align 4, !tbaa !30
  %51 = icmp ne i32 %50, 0
  br i1 %51, label %53, label %52

52:                                               ; preds = %47
  store i32 9, ptr %2, align 4
  store i32 1, ptr %7, align 4
  br label %54

53:                                               ; preds = %47
  store i32 0, ptr %7, align 4
  br label %54

54:                                               ; preds = %53, %52, %40
  call void @llvm.lifetime.end.p0(i64 4, ptr %9) #9
  call void @llvm.lifetime.end.p0(i64 4, ptr %8) #9
  %55 = load i32, ptr %7, align 4
  switch i32 %55, label %59 [
    i32 0, label %56
    i32 2, label %26
  ]

56:                                               ; preds = %54
  br label %57

57:                                               ; preds = %56, %27
  store i32 0, ptr %2, align 4
  store i32 1, ptr %7, align 4
  br label %59

58:                                               ; preds = %19
  store i32 9, ptr %2, align 4
  store i32 1, ptr %7, align 4
  br label %59

59:                                               ; preds = %58, %57, %54, %18
  call void @llvm.lifetime.end.p0(i64 8, ptr %6) #9
  call void @llvm.lifetime.end.p0(i64 8, ptr %5) #9
  call void @llvm.lifetime.end.p0(i64 8, ptr %4) #9
  %60 = load i32, ptr %2, align 4
  ret i32 %60
}