; Function Attrs: nofree nounwind uwtable
define range(i32 0, 10) i32 @curl_multi_wakeup(ptr noundef readonly %0) local_unnamed_addr #5 {
  %2 = alloca i64, align 8
  call void @llvm.lifetime.start.p0(i64 8, ptr nonnull %2) #19
  store i64 1, ptr %2, align 8, !tbaa !115
  %.not = icmp eq ptr %0, null
  br i1 %.not, label %.loopexit, label %3

3:                                                ; preds = %1
  %4 = load i32, ptr %0, align 8, !tbaa !7
  %5 = icmp eq i32 %4, 764702
  br i1 %5, label %6, label %.loopexit

6:                                                ; preds = %3
  %7 = getelementptr inbounds nuw i8, ptr %0, i64 636
  %8 = load i32, ptr %7, align 4, !tbaa !28
  %.not14 = icmp eq i32 %8, -1
  br i1 %.not14, label %.loopexit, label %.preheader

.preheader:                                       ; preds = %6, %12
  %9 = load i32, ptr %7, align 4, !tbaa !28
  %10 = call i64 @write(i32 noundef %9, ptr noundef nonnull %2, i64 noundef 8) #19
  %11 = icmp slt i64 %10, 0
  br i1 %11, label %12, label %.loopexit

12:                                               ; preds = %.preheader
  %13 = tail call ptr @__errno_location() #20
  %14 = load i32, ptr %13, align 4, !tbaa !28
  %switch.selectcmp = icmp ne i32 %14, 11
  %switch.select = zext i1 %switch.selectcmp to i32
  %switch.selectcmp15 = icmp eq i32 %14, 4
  %switch.select16 = select i1 %switch.selectcmp15, i32 2, i32 %switch.select
  switch i32 %switch.select16, label %.loopexit.loopexit [
    i32 0, label %.loopexit
    i32 2, label %.preheader
  ]

.loopexit.loopexit:                               ; preds = %12
  br label %.loopexit

.loopexit:                                        ; preds = %.preheader, %12, %.loopexit.loopexit, %6, %1, %3
  %.0 = phi i32 [ 1, %3 ], [ 1, %1 ], [ 9, %6 ], [ 9, %.loopexit.loopexit ], [ 0, %12 ], [ 0, %.preheader ]
  call void @llvm.lifetime.end.p0(i64 8, ptr nonnull %2) #19
  ret i32 %.0
}